target datalayout = "e-m:e-p270:32:32-p271:32:32-p272:64:64-i64:64-i128:128-f80:128-n8:16:32:64-S128"
target triple = "x86_64-unknown-linux-gnu"

%class.mpz = type { i32, i8, ptr }
%class.linear_equation = type { i32, ptr, ptr, ptr }

; Function Attrs: mustprogress nounwind uwtable
define linkonce_odr hidden noundef i32 @_ZN11mpz_managerILb0EE4signERK3mpz(ptr noundef nonnull align 8 dereferenceable(16) %a) #5 comdat align 2 {
entry:
  %a.addr = alloca ptr, align 8
  store ptr %a, ptr %a.addr, align 8
  %0 = load ptr, ptr %a.addr, align 8
  %m_val = getelementptr inbounds %class.mpz, ptr %0, i32 0, i32 0
  %1 = load i32, ptr %m_val, align 8
  ret i32 %1
}

; Function Attrs: mustprogress nounwind uwtable
define linkonce_odr hidden noundef zeroext i1 @_ZN11mpz_managerILb0EE6is_posERK3mpz(ptr noundef nonnull align 8 dereferenceable(16) %a) #5 comdat align 2 {
entry:
  %a.addr = alloca ptr, align 8
  store ptr %a, ptr %a.addr, align 8
  %0 = load ptr, ptr %a.addr, align 8
  %call = call noundef i32 @_ZN11mpz_managerILb0EE4signERK3mpz(ptr noundef nonnull align 8 dereferenceable(16) %0)
  %cmp = icmp sgt i32 %call, 0
  ret i1 %cmp
}

; Function Attrs: mustprogress uwtable
define linkonce_odr hidden noundef zeroext i1 @_ZN11mpq_managerILb0EE6is_posERK3mpz(ptr noundef nonnull align 8 dereferenceable(16) %a) #4 comdat align 2 {
entry:
  %a.addr = alloca ptr, align 8
  store ptr %a, ptr %a.addr, align 8
  %0 = load ptr, ptr %a.addr, align 8
  %call = call noundef zeroext i1 @_ZN11mpz_managerILb0EE6is_posERK3mpz(ptr noundef nonnull align 8 dereferenceable(16) %0)
  ret i1 %call
}

; Function Attrs: mustprogress nounwind uwtable
define linkonce_odr hidden noundef nonnull align 8 dereferenceable(16) ptr @_ZNK15linear_equation1aEj(ptr noundef nonnull align 8 dereferenceable(32) %this, i32 noundef %idx) #5 comdat align 2 {
entry:
  %this.addr = alloca ptr, align 8
  %idx.addr = alloca i32, align 4
  store ptr %this, ptr %this.addr, align 8
  store i32 %idx, ptr %idx.addr, align 4
  %this1 = load ptr, ptr %this.addr, align 8
  %m_as = getelementptr inbounds %class.linear_equation, ptr %this1, i32 0, i32 1
  %0 = load ptr, ptr %m_as, align 8
  %1 = load i32, ptr %idx.addr, align 4
  %idxprom = zext i32 %1 to i64
  %arrayidx = getelementptr inbounds %class.mpz, ptr %0, i64 %idxprom
  ret ptr %arrayidx
}

; Function Attrs: mustprogress uwtable
define hidden noundef zeroext i1 @_ZNK16bound_propagator10is_a_i_posERK15linear_equationj(ptr noundef nonnull align 8 dereferenceable(280) %this, ptr noundef nonnull align 8 dereferenceable(32) %eq, i32 noundef %x) #4 align 2 {
entry:
  %retval = alloca i1, align 1
  %this.addr = alloca ptr, align 8
  %eq.addr = alloca ptr, align 8
  %x.addr = alloca i32, align 4
  %i = alloca i32, align 4
  store ptr %this, ptr %this.addr, align 8
  store ptr %eq, ptr %eq.addr, align 8
  store i32 %x, ptr %x.addr, align 4
  %0 = load ptr, ptr %eq.addr, align 8
  %1 = load i32, ptr %x.addr, align 4
  %call = call noundef i32 @_ZNK15linear_equation3posEj(ptr noundef nonnull align 8 dereferenceable(32) %0, i32 noundef %1)
  store i32 %call, ptr %i, align 4
  %2 = load i32, ptr %i, align 4
  %cmp = icmp eq i32 %2, -1
  br i1 %cmp, label %if.then, label %if.end

if.then:                                          ; preds = %entry
  store i1 false, ptr %retval, align 1
  br label %return

if.end:                                           ; preds = %entry
  %3 = load ptr, ptr %eq.addr, align 8
  %4 = load i32, ptr %i, align 4
  %call2 = call noundef nonnull align 8 dereferenceable(16) ptr @_ZNK15linear_equation1aEj(ptr noundef nonnull align 8 dereferenceable(32) %3, i32 noundef %4)
  %call3 = call noundef zeroext i1 @_ZN11mpq_managerILb0EE6is_posERK3mpz(ptr noundef nonnull align 8 dereferenceable(16) %call2)
  store i1 %call3, ptr %retval, align 1
  br label %return

return:                                           ; preds = %if.end, %if.then
  %5 = load i1, ptr %retval, align 1
  ret i1 %5
}