; Function Attrs: mustprogress uwtable
define hidden noundef zeroext i1 @_ZNK16bound_propagator10is_a_i_posERK15linear_equationj(ptr nocapture noundef nonnull readnone align 8 dereferenceable(280) %this, ptr noundef nonnull align 8 dereferenceable(32) %eq, i32 noundef %x) local_unnamed_addr #3 align 2 {
entry:
  %call = tail call noundef i32 @_ZNK15linear_equation3posEj(ptr noundef nonnull align 8 dereferenceable(32) %eq, i32 noundef %x)
  %cmp = icmp eq i32 %call, -1
  br i1 %cmp, label %return, label %if.end

if.end:                                           ; preds = %entry
  %m_as.i = getelementptr inbounds i8, ptr %eq, i64 8
  %0 = load ptr, ptr %m_as.i, align 8
  %idxprom.i = zext i32 %call to i64
  %arrayidx.i = getelementptr inbounds %class.mpz, ptr %0, i64 %idxprom.i
  %1 = load i32, ptr %arrayidx.i, align 8
  %cmp.i.i = icmp sgt i32 %1, 0
  br label %return

return:                                           ; preds = %entry, %if.end
  %retval.0 = phi i1 [ %cmp.i.i, %if.end ], [ false, %entry ]
  ret i1 %retval.0
}